target datalayout = "e-m:e-p270:32:32-p271:32:32-p272:64:64-i64:64-i128:128-f80:128-n8:16:32:64-S128"
target triple = "x86_64-pc-linux-gnu"

%struct.pbe_suite = type { i32, ptr, ptr, ptr, i32 }

@.str = private unnamed_addr constant [124 x i8] c"generated/home/dtcxzyw/WorkSpace/Projects/compilers/llvm-opt-benchmark/bench/libquic/libquic/boringssl/crypto/pkcs8/pkcs8.c\00", align 1

; Function Attrs: nounwind uwtable
define internal i32 @ascii_to_ucs2(ptr noundef %0, i64 noundef %1, ptr noundef %2, ptr noundef %3) #0 {
  %5 = alloca i32, align 4
  %6 = alloca ptr, align 8
  %7 = alloca i64, align 8
  %8 = alloca ptr, align 8
  %9 = alloca ptr, align 8
  %10 = alloca ptr, align 8
  %11 = alloca i64, align 8
  %12 = alloca i64, align 8
  %13 = alloca i32, align 4
  store ptr %0, ptr %6, align 8, !tbaa !11
  store i64 %1, ptr %7, align 8, !tbaa !15
  store ptr %2, ptr %8, align 8, !tbaa !27
  store ptr %3, ptr %9, align 8, !tbaa !29
  call void @llvm.lifetime.start.p0(i64 8, ptr %10) #8
  call void @llvm.lifetime.start.p0(i64 8, ptr %11) #8
  call void @llvm.lifetime.start.p0(i64 8, ptr %12) #8
  %14 = load i64, ptr %7, align 8, !tbaa !15
  %15 = mul i64 %14, 2
  %16 = add i64 %15, 2
  store i64 %16, ptr %11, align 8, !tbaa !15
  %17 = load i64, ptr %11, align 8, !tbaa !15
  %18 = load i64, ptr %7, align 8, !tbaa !15
  %19 = icmp ult i64 %17, %18
  br i1 %19, label %20, label %21

20:                                               ; preds = %4
  store i32 0, ptr %5, align 4
  store i32 1, ptr %13, align 4
  br label %62

21:                                               ; preds = %4
  %22 = load i64, ptr %11, align 8, !tbaa !15
  %23 = call noalias ptr @malloc(i64 noundef %22) #10
  store ptr %23, ptr %10, align 8, !tbaa !11
  %24 = load ptr, ptr %10, align 8, !tbaa !11
  %25 = icmp eq ptr %24, null
  br i1 %25, label %26, label %27

26:                                               ; preds = %21
  store i32 0, ptr %5, align 4
  store i32 1, ptr %13, align 4
  br label %62

27:                                               ; preds = %21
  store i64 0, ptr %12, align 8, !tbaa !15
  br label %28

28:                                               ; preds = %46, %27
  %29 = load i64, ptr %12, align 8, !tbaa !15
  %30 = load i64, ptr %11, align 8, !tbaa !15
  %31 = sub i64 %30, 2
  %32 = icmp ult i64 %29, %31
  br i1 %32, label %33, label %49

33:                                               ; preds = %28
  %34 = load ptr, ptr %10, align 8, !tbaa !11
  %35 = load i64, ptr %12, align 8, !tbaa !15
  %36 = getelementptr inbounds nuw i8, ptr %34, i64 %35
  store i8 0, ptr %36, align 1, !tbaa !65
  %37 = load ptr, ptr %6, align 8, !tbaa !11
  %38 = load i64, ptr %12, align 8, !tbaa !15
  %39 = lshr i64 %38, 1
  %40 = getelementptr inbounds nuw i8, ptr %37, i64 %39
  %41 = load i8, ptr %40, align 1, !tbaa !65
  %42 = load ptr, ptr %10, align 8, !tbaa !11
  %43 = load i64, ptr %12, align 8, !tbaa !15
  %44 = add i64 %43, 1
  %45 = getelementptr inbounds nuw i8, ptr %42, i64 %44
  store i8 %41, ptr %45, align 1, !tbaa !65
  br label %46

46:                                               ; preds = %33
  %47 = load i64, ptr %12, align 8, !tbaa !15
  %48 = add i64 %47, 2
  store i64 %48, ptr %12, align 8, !tbaa !15
  br label %28, !llvm.loop !66

49:                                               ; preds = %28
  %50 = load ptr, ptr %10, align 8, !tbaa !11
  %51 = load i64, ptr %11, align 8, !tbaa !15
  %52 = sub i64 %51, 2
  %53 = getelementptr inbounds nuw i8, ptr %50, i64 %52
  store i8 0, ptr %53, align 1, !tbaa !65
  %54 = load ptr, ptr %10, align 8, !tbaa !11
  %55 = load i64, ptr %11, align 8, !tbaa !15
  %56 = sub i64 %55, 1
  %57 = getelementptr inbounds nuw i8, ptr %54, i64 %56
  store i8 0, ptr %57, align 1, !tbaa !65
  %58 = load i64, ptr %11, align 8, !tbaa !15
  %59 = load ptr, ptr %9, align 8, !tbaa !29
  store i64 %58, ptr %59, align 8, !tbaa !15
  %60 = load ptr, ptr %10, align 8, !tbaa !11
  %61 = load ptr, ptr %8, align 8, !tbaa !27
  store ptr %60, ptr %61, align 8, !tbaa !11
  store i32 1, ptr %5, align 4
  store i32 1, ptr %13, align 4
  br label %62

62:                                               ; preds = %49, %26, %20
  call void @llvm.lifetime.end.p0(i64 8, ptr %12) #8
  call void @llvm.lifetime.end.p0(i64 8, ptr %11) #8
  call void @llvm.lifetime.end.p0(i64 8, ptr %10) #8
  %63 = load i32, ptr %5, align 4
  ret i32 %63
}

; Function Attrs: nounwind uwtable
define internal ptr @get_pbe_suite(i32 noundef %0) #0 {
  %2 = alloca ptr, align 8
  %3 = alloca i32, align 4
  %4 = alloca i32, align 4
  %5 = alloca i32, align 4
  store i32 %0, ptr %3, align 4, !tbaa !13
  call void @llvm.lifetime.start.p0(i64 4, ptr %4) #8
  store i32 0, ptr %4, align 4, !tbaa !13
  br label %6

6:                                                ; preds = %23, %1
  %7 = load i32, ptr %4, align 4, !tbaa !13
  %8 = zext i32 %7 to i64
  %9 = icmp ult i64 %8, 4
  br i1 %9, label %10, label %26

10:                                               ; preds = %6
  %11 = load i32, ptr %4, align 4, !tbaa !13
  %12 = zext i32 %11 to i64
  %13 = getelementptr inbounds nuw [4 x %struct.pbe_suite], ptr @kBuiltinPBE, i64 0, i64 %12
  %14 = getelementptr inbounds nuw %struct.pbe_suite, ptr %13, i32 0, i32 0
  %15 = load i32, ptr %14, align 8, !tbaa !97
  %16 = load i32, ptr %3, align 4, !tbaa !13
  %17 = icmp eq i32 %15, %16
  br i1 %17, label %18, label %22

18:                                               ; preds = %10
  %19 = load i32, ptr %4, align 4, !tbaa !13
  %20 = zext i32 %19 to i64
  %21 = getelementptr inbounds nuw [4 x %struct.pbe_suite], ptr @kBuiltinPBE, i64 0, i64 %20
  store ptr %21, ptr %2, align 8
  store i32 1, ptr %5, align 4
  br label %27

22:                                               ; preds = %10
  br label %23

23:                                               ; preds = %22
  %24 = load i32, ptr %4, align 4, !tbaa !13
  %25 = add i32 %24, 1
  store i32 %25, ptr %4, align 4, !tbaa !13
  br label %6, !llvm.loop !98

26:                                               ; preds = %6
  store ptr null, ptr %2, align 8
  store i32 1, ptr %5, align 4
  br label %27

27:                                               ; preds = %26, %18
  call void @llvm.lifetime.end.p0(i64 4, ptr %4) #8
  %28 = load ptr, ptr %2, align 8
  ret ptr %28
}

; Function Attrs: nounwind uwtable
define internal i32 @pass_to_pass_raw(i32 noundef %0, ptr noundef %1, i32 noundef %2, ptr noundef %3, ptr noundef %4) #0 {
  %6 = alloca i32, align 4
  %7 = alloca i32, align 4
  %8 = alloca ptr, align 8
  %9 = alloca i32, align 4
  %10 = alloca ptr, align 8
  %11 = alloca ptr, align 8
  %12 = alloca ptr, align 8
  %13 = alloca i32, align 4
  store i32 %0, ptr %7, align 4, !tbaa !13
  store ptr %1, ptr %8, align 8, !tbaa !11
  store i32 %2, ptr %9, align 4, !tbaa !13
  store ptr %3, ptr %10, align 8, !tbaa !27
  store ptr %4, ptr %11, align 8, !tbaa !29
  %14 = load ptr, ptr %8, align 8, !tbaa !11
  %15 = icmp eq ptr %14, null
  br i1 %15, label %16, label %19

16:                                               ; preds = %5
  %17 = load ptr, ptr %10, align 8, !tbaa !27
  store ptr null, ptr %17, align 8, !tbaa !11
  %18 = load ptr, ptr %11, align 8, !tbaa !29
  store i64 0, ptr %18, align 8, !tbaa !15
  store i32 1, ptr %6, align 4
  br label %71

19:                                               ; preds = %5
  %20 = load i32, ptr %9, align 4, !tbaa !13
  %21 = icmp eq i32 %20, -1
  br i1 %21, label %22, label %26

22:                                               ; preds = %19
  %23 = load ptr, ptr %8, align 8, !tbaa !11
  %24 = call i64 @strlen(ptr noundef %23) #9
  %25 = trunc i64 %24 to i32
  store i32 %25, ptr %9, align 4, !tbaa !13
  br label %34

26:                                               ; preds = %19
  %27 = load i32, ptr %9, align 4, !tbaa !13
  %28 = icmp slt i32 %27, 0
  br i1 %28, label %32, label %29

29:                                               ; preds = %26
  %30 = load i32, ptr %9, align 4, !tbaa !13
  %31 = icmp sgt i32 %30, 2000000000
  br i1 %31, label %32, label %33

32:                                               ; preds = %29, %26
  call void @ERR_put_error(i32 noundef 19, i32 noundef 0, i32 noundef 69, ptr noundef @.str, i32 noundef 342)
  store i32 0, ptr %6, align 4
  br label %71

33:                                               ; preds = %29
  br label %34

34:                                               ; preds = %33, %22
  call void @llvm.lifetime.start.p0(i64 8, ptr %12) #8
  %35 = load i32, ptr %7, align 4, !tbaa !13
  %36 = call ptr @get_pbe_suite(i32 noundef %35)
  store ptr %36, ptr %12, align 8, !tbaa !31
  %37 = load ptr, ptr %12, align 8, !tbaa !31
  %38 = icmp ne ptr %37, null
  br i1 %38, label %39, label %55

39:                                               ; preds = %34
  %40 = load ptr, ptr %12, align 8, !tbaa !31
  %41 = getelementptr inbounds nuw %struct.pbe_suite, ptr %40, i32 0, i32 4
  %42 = load i32, ptr %41, align 8, !tbaa !33
  %43 = and i32 %42, 1
  %44 = icmp ne i32 %43, 0
  br i1 %44, label %45, label %55

45:                                               ; preds = %39
  %46 = load ptr, ptr %8, align 8, !tbaa !11
  %47 = load i32, ptr %9, align 4, !tbaa !13
  %48 = sext i32 %47 to i64
  %49 = load ptr, ptr %10, align 8, !tbaa !27
  %50 = load ptr, ptr %11, align 8, !tbaa !29
  %51 = call i32 @ascii_to_ucs2(ptr noundef %46, i64 noundef %48, ptr noundef %49, ptr noundef %50)
  %52 = icmp ne i32 %51, 0
  br i1 %52, label %54, label %53

53:                                               ; preds = %45
  call void @ERR_put_error(i32 noundef 19, i32 noundef 0, i32 noundef 104, ptr noundef @.str, i32 noundef 349)
  store i32 0, ptr %6, align 4
  store i32 1, ptr %13, align 4
  br label %70

54:                                               ; preds = %45
  br label %69

55:                                               ; preds = %39, %34
  %56 = load ptr, ptr %8, align 8, !tbaa !11
  %57 = load i32, ptr %9, align 4, !tbaa !13
  %58 = sext i32 %57 to i64
  %59 = call ptr @BUF_memdup(ptr noundef %56, i64 noundef %58)
  %60 = load ptr, ptr %10, align 8, !tbaa !27
  store ptr %59, ptr %60, align 8, !tbaa !11
  %61 = load ptr, ptr %10, align 8, !tbaa !27
  %62 = load ptr, ptr %61, align 8, !tbaa !11
  %63 = icmp eq ptr %62, null
  br i1 %63, label %64, label %65

64:                                               ; preds = %55
  call void @ERR_put_error(i32 noundef 19, i32 noundef 0, i32 noundef 65, ptr noundef @.str, i32 noundef 355)
  store i32 0, ptr %6, align 4
  store i32 1, ptr %13, align 4
  br label %70

65:                                               ; preds = %55
  %66 = load i32, ptr %9, align 4, !tbaa !13
  %67 = sext i32 %66 to i64
  %68 = load ptr, ptr %11, align 8, !tbaa !29
  store i64 %67, ptr %68, align 8, !tbaa !15
  br label %69

69:                                               ; preds = %65, %54
  store i32 1, ptr %6, align 4
  store i32 1, ptr %13, align 4
  br label %70

70:                                               ; preds = %69, %64, %53
  call void @llvm.lifetime.end.p0(i64 8, ptr %12) #8
  br label %71

71:                                               ; preds = %70, %32, %16
  %72 = load i32, ptr %6, align 4
  ret i32 %72
}