; Function Attrs: nounwind uwtable
define internal fastcc range(i32 0, 2) i32 @pass_to_pass_raw(i32 noundef %0, ptr noundef %1, i32 noundef %2, ptr noundef nonnull writeonly captures(none) %3, ptr noundef nonnull writeonly captures(none) %4) unnamed_addr #0 {
  %6 = icmp eq ptr %1, null
  br i1 %6, label %7, label %8

7:                                                ; preds = %5
  store ptr null, ptr %3, align 8, !tbaa !6
  store i64 0, ptr %4, align 8, !tbaa !11
  br label %49

8:                                                ; preds = %5
  %9 = icmp eq i32 %2, -1
  br i1 %9, label %10, label %13

10:                                               ; preds = %8
  %11 = tail call i64 @strlen(ptr noundef nonnull dereferenceable(1) %1) #13
  %12 = trunc i64 %11 to i32
  br label %15

13:                                               ; preds = %8
  %or.cond = icmp ugt i32 %2, 2000000000
  br i1 %or.cond, label %14, label %15

14:                                               ; preds = %13
  tail call void @ERR_put_error(i32 noundef 19, i32 noundef 0, i32 noundef 69, ptr noundef nonnull @.str, i32 noundef 342) #12
  br label %49

15:                                               ; preds = %13, %10
  %.021 = phi i32 [ %12, %10 ], [ %2, %13 ]
  br label %17

16:                                               ; preds = %17
  %indvars.iv.next.i = add nuw nsw i64 %indvars.iv.i, 1
  %exitcond.not.i = icmp eq i64 %indvars.iv.next.i, 4
  br i1 %exitcond.not.i, label %get_pbe_suite.exit.thread, label %17, !llvm.loop !21

17:                                               ; preds = %16, %15
  %indvars.iv.i = phi i64 [ 0, %15 ], [ %indvars.iv.next.i, %16 ]
  %18 = getelementptr inbounds nuw [4 x %struct.pbe_suite], ptr @kBuiltinPBE, i64 0, i64 %indvars.iv.i
  %19 = load i32, ptr %18, align 8, !tbaa !23
  %20 = icmp eq i32 %19, %0
  br i1 %20, label %get_pbe_suite.exit, label %16

get_pbe_suite.exit:                               ; preds = %17
  %21 = getelementptr inbounds nuw i8, ptr %18, i64 32
  %22 = load i32, ptr %21, align 8, !tbaa !26
  %23 = and i32 %22, 1
  %.not25 = icmp eq i32 %23, 0
  br i1 %.not25, label %get_pbe_suite.exit.thread, label %24

24:                                               ; preds = %get_pbe_suite.exit
  %25 = sext i32 %.021 to i64
  %26 = shl nsw i64 %25, 1
  %27 = add nsw i64 %26, 2
  %28 = icmp ult i64 %27, %25
  br i1 %28, label %43, label %29

29:                                               ; preds = %24
  %30 = tail call noalias ptr @malloc(i64 noundef %27) #14
  %31 = icmp eq ptr %30, null
  br i1 %31, label %43, label %.preheader.i

.preheader.i:                                     ; preds = %29
  %.not.i = icmp eq i32 %.021, 0
  br i1 %.not.i, label %ascii_to_ucs2.exit, label %.lr.ph.i

.lr.ph.i:                                         ; preds = %.preheader.i, %.lr.ph.i
  %.026.i = phi i64 [ %38, %.lr.ph.i ], [ 0, %.preheader.i ]
  %32 = getelementptr inbounds nuw i8, ptr %30, i64 %.026.i
  store i8 0, ptr %32, align 1, !tbaa !27
  %33 = lshr exact i64 %.026.i, 1
  %34 = getelementptr inbounds nuw i8, ptr %1, i64 %33
  %35 = load i8, ptr %34, align 1, !tbaa !27
  %36 = or disjoint i64 %.026.i, 1
  %37 = getelementptr inbounds nuw i8, ptr %30, i64 %36
  store i8 %35, ptr %37, align 1, !tbaa !27
  %38 = add nuw i64 %.026.i, 2
  %39 = icmp ult i64 %38, %26
  br i1 %39, label %.lr.ph.i, label %ascii_to_ucs2.exit, !llvm.loop !28

ascii_to_ucs2.exit:                               ; preds = %.lr.ph.i, %.preheader.i
  %40 = getelementptr inbounds nuw i8, ptr %30, i64 %26
  store i8 0, ptr %40, align 1, !tbaa !27
  %41 = or disjoint i64 %26, 1
  %42 = getelementptr inbounds nuw i8, ptr %30, i64 %41
  store i8 0, ptr %42, align 1, !tbaa !27
  store i64 %27, ptr %4, align 8, !tbaa !11
  store ptr %30, ptr %3, align 8, !tbaa !6
  br label %49

43:                                               ; preds = %24, %29
  tail call void @ERR_put_error(i32 noundef 19, i32 noundef 0, i32 noundef 104, ptr noundef nonnull @.str, i32 noundef 349) #12
  br label %49

get_pbe_suite.exit.thread:                        ; preds = %16, %get_pbe_suite.exit
  %44 = sext i32 %.021 to i64
  %45 = tail call ptr @BUF_memdup(ptr noundef nonnull %1, i64 noundef %44) #12
  store ptr %45, ptr %3, align 8, !tbaa !6
  %46 = icmp eq ptr %45, null
  br i1 %46, label %47, label %48

47:                                               ; preds = %get_pbe_suite.exit.thread
  tail call void @ERR_put_error(i32 noundef 19, i32 noundef 0, i32 noundef 65, ptr noundef nonnull @.str, i32 noundef 355) #12
  br label %49

48:                                               ; preds = %get_pbe_suite.exit.thread
  store i64 %44, ptr %4, align 8, !tbaa !11
  br label %49

49:                                               ; preds = %ascii_to_ucs2.exit, %43, %47, %48, %14, %7
  %.0 = phi i32 [ 1, %7 ], [ 0, %14 ], [ 0, %43 ], [ 0, %47 ], [ 1, %ascii_to_ucs2.exit ], [ 1, %48 ]
  ret i32 %.0
}